; ModuleID = '29/1952.c'
source_filename = "29/1952.c"
target datalayout = "e-m:e-p270:32:32-p271:32:32-p272:64:64-i64:64-f80:128-n8:16:32:64-S128"
target triple = "x86_64-pc-linux-gnu"

@.str = private unnamed_addr constant [3 x i8] c"%d\00", align 1
@.str.1 = private unnamed_addr constant [7 x i8] c"%.3lf\0A\00", align 1

; Function Attrs: noinline nounwind uwtable
define dso_local double @dosum(i32 %0) #0 {
  %2 = alloca i32, align 4
  %3 = alloca i32, align 4
  %4 = alloca i32, align 4
  %5 = alloca [1000 x double], align 16
  %6 = alloca [1000 x double], align 16
  %7 = alloca double, align 8
  store i32 %0, i32* %2, align 4
  store i32 2, i32* %4, align 4
  store double 0.000000e+00, double* %7, align 8
  %8 = getelementptr inbounds [1000 x double], [1000 x double]* %5, i64 0, i64 0
  store double 2.000000e+00, double* %8, align 16
  %9 = getelementptr inbounds [1000 x double], [1000 x double]* %5, i64 0, i64 1
  store double 3.000000e+00, double* %9, align 8
  %10 = getelementptr inbounds [1000 x double], [1000 x double]* %6, i64 0, i64 0
  store double 1.000000e+00, double* %10, align 16
  %11 = getelementptr inbounds [1000 x double], [1000 x double]* %6, i64 0, i64 1
  store double 2.000000e+00, double* %11, align 8
  store i32 2, i32* %3, align 4
  br label %12

12:                                               ; preds = %48, %1
  %13 = load i32, i32* %4, align 4
  %14 = load i32, i32* %2, align 4
  %15 = icmp eq i32 %13, %14
  br i1 %15, label %16, label %17

16:                                               ; preds = %12
  br label %51

17:                                               ; preds = %12
  %18 = load i32, i32* %3, align 4
  %19 = sub nsw i32 %18, 1
  %20 = sext i32 %19 to i64
  %21 = getelementptr inbounds [1000 x double], [1000 x double]* %5, i64 0, i64 %20
  %22 = load double, double* %21, align 8
  %23 = load i32, i32* %3, align 4
  %24 = sub nsw i32 %23, 2
  %25 = sext i32 %24 to i64
  %26 = getelementptr inbounds [1000 x double], [1000 x double]* %5, i64 0, i64 %25
  %27 = load double, double* %26, align 8
  %28 = fadd double %22, %27
  %29 = load i32, i32* %3, align 4
  %30 = sext i32 %29 to i64
  %31 = getelementptr inbounds [1000 x double], [1000 x double]* %5, i64 0, i64 %30
  store double %28, double* %31, align 8
  %32 = load i32, i32* %3, align 4
  %33 = sub nsw i32 %32, 1
  %34 = sext i32 %33 to i64
  %35 = getelementptr inbounds [1000 x double], [1000 x double]* %6, i64 0, i64 %34
  %36 = load double, double* %35, align 8
  %37 = load i32, i32* %3, align 4
  %38 = sub nsw i32 %37, 2
  %39 = sext i32 %38 to i64
  %40 = getelementptr inbounds [1000 x double], [1000 x double]* %6, i64 0, i64 %39
  %41 = load double, double* %40, align 8
  %42 = fadd double %36, %41
  %43 = load i32, i32* %3, align 4
  %44 = sext i32 %43 to i64
  %45 = getelementptr inbounds [1000 x double], [1000 x double]* %6, i64 0, i64 %44
  store double %42, double* %45, align 8
  %46 = load i32, i32* %4, align 4
  %47 = add nsw i32 %46, 1
  store i32 %47, i32* %4, align 4
  br label %48

48:                                               ; preds = %17
  %49 = load i32, i32* %3, align 4
  %50 = add nsw i32 %49, 1
  store i32 %50, i32* %3, align 4
  br label %12

51:                                               ; preds = %16
  store i32 0, i32* %3, align 4
  br label %52

52:                                               ; preds = %68, %51
  %53 = load i32, i32* %3, align 4
  %54 = load i32, i32* %2, align 4
  %55 = icmp slt i32 %53, %54
  br i1 %55, label %56, label %71

56:                                               ; preds = %52
  %57 = load double, double* %7, align 8
  %58 = load i32, i32* %3, align 4
  %59 = sext i32 %58 to i64
  %60 = getelementptr inbounds [1000 x double], [1000 x double]* %5, i64 0, i64 %59
  %61 = load double, double* %60, align 8
  %62 = load i32, i32* %3, align 4
  %63 = sext i32 %62 to i64
  %64 = getelementptr inbounds [1000 x double], [1000 x double]* %6, i64 0, i64 %63
  %65 = load double, double* %64, align 8
  %66 = fdiv double %61, %65
  %67 = fadd double %57, %66
  store double %67, double* %7, align 8
  br label %68

68:                                               ; preds = %56
  %69 = load i32, i32* %3, align 4
  %70 = add nsw i32 %69, 1
  store i32 %70, i32* %3, align 4
  br label %52

71:                                               ; preds = %52
  %72 = load double, double* %7, align 8
  ret double %72
}

; Function Attrs: noinline nounwind uwtable
define dso_local i32 @main() #0 {
  %1 = alloca i32, align 4
  %2 = alloca i32, align 4
  %3 = alloca i32, align 4
  %4 = alloca i32, align 4
  %5 = alloca i32, align 4
  %6 = alloca [100 x double], align 16
  store i32 0, i32* %1, align 4
  %7 = call i32 (i8*, ...) @__isoc99_scanf(i8* getelementptr inbounds ([3 x i8], [3 x i8]* @.str, i64 0, i64 0), i32* %2)
  store i32 1, i32* %3, align 4
  br label %8

8:                                                ; preds = %26, %0
  %9 = load i32, i32* %3, align 4
  %10 = load i32, i32* %2, align 4
  %11 = icmp sle i32 %9, %10
  br i1 %11, label %12, label %29

12:                                               ; preds = %8
  %13 = call i32 (i8*, ...) @__isoc99_scanf(i8* getelementptr inbounds ([3 x i8], [3 x i8]* @.str, i64 0, i64 0), i32* %4)
  %14 = load i32, i32* %4, align 4
  %15 = icmp eq i32 %14, 1
  br i1 %15, label %16, label %18

16:                                               ; preds = %12
  %17 = getelementptr inbounds [100 x double], [100 x double]* %6, i64 0, i64 0
  store double 2.000000e+00, double* %17, align 16
  br label %25

18:                                               ; preds = %12
  %19 = load i32, i32* %4, align 4
  %20 = call double @dosum(i32 %19)
  %21 = load i32, i32* %3, align 4
  %22 = sub nsw i32 %21, 1
  %23 = sext i32 %22 to i64
  %24 = getelementptr inbounds [100 x double], [100 x double]* %6, i64 0, i64 %23
  store double %20, double* %24, align 8
  br label %25

25:                                               ; preds = %18, %16
  br label %26

26:                                               ; preds = %25
  %27 = load i32, i32* %3, align 4
  %28 = add nsw i32 %27, 1
  store i32 %28, i32* %3, align 4
  br label %8

29:                                               ; preds = %8
  store i32 0, i32* %3, align 4
  br label %30

30:                                               ; preds = %41, %29
  %31 = load i32, i32* %3, align 4
  %32 = load i32, i32* %2, align 4
  %33 = sub nsw i32 %32, 1
  %34 = icmp sle i32 %31, %33
  br i1 %34, label %35, label %44

35:                                               ; preds = %30
  %36 = load i32, i32* %3, align 4
  %37 = sext i32 %36 to i64
  %38 = getelementptr inbounds [100 x double], [100 x double]* %6, i64 0, i64 %37
  %39 = load double, double* %38, align 8
  %40 = call i32 (i8*, ...) @printf(i8* getelementptr inbounds ([7 x i8], [7 x i8]* @.str.1, i64 0, i64 0), double %39)
  br label %41

41:                                               ; preds = %35
  %42 = load i32, i32* %3, align 4
  %43 = add nsw i32 %42, 1
  store i32 %43, i32* %3, align 4
  br label %30

44:                                               ; preds = %30
  %45 = load i32, i32* %1, align 4
  ret i32 %45
}

declare dso_local i32 @__isoc99_scanf(i8*, ...) #1

declare dso_local i32 @printf(i8*, ...) #1


!llvm.module.flags = !{!0}
!llvm.ident = !{!1}

!0 = !{i32 1, !"wchar_size", i32 4}
!1 = !{!"clang version 10.0.0-4ubuntu1 "}
